; Function Attrs: mustprogress uwtable
define dso_local noundef nonnull ptr @_ZNK23FunctionInvocationUnary5cloneEv(ptr noundef nonnull align 8 dereferenceable(96) %0) unnamed_addr #3 align 2 personality ptr @__gxx_personality_v0 {
  %2 = tail call noalias noundef nonnull dereferenceable(96) ptr @_Znwm(i64 noundef 96) #10
  invoke void @_ZN18FunctionInvocationC2ERKS_(ptr noundef nonnull align 8 dereferenceable(56) %2, ptr noundef nonnull align 8 dereferenceable(56) %0)
          to label %.noexc unwind label %10

.noexc:                                           ; preds = %1
  store ptr getelementptr inbounds ({ [15 x ptr] }, ptr @_ZTV23FunctionInvocationUnary, i64 0, i32 0, i64 2), ptr %2, align 8
  %3 = getelementptr inbounds i8, ptr %2, i64 56
  %4 = getelementptr inbounds i8, ptr %0, i64 56
  %5 = load i32, ptr %4, align 8
  store i32 %5, ptr %3, align 8
  %6 = getelementptr inbounds i8, ptr %2, i64 64
  %7 = getelementptr inbounds i8, ptr %0, i64 64
  invoke void @_ZNSt7__cxx1112basic_stringIcSt11char_traitsIcESaIcEEC1ERKS4_(ptr noundef nonnull align 8 dereferenceable(32) %6, ptr noundef nonnull align 8 dereferenceable(32) %7)
          to label %_ZN23FunctionInvocationUnaryC2ERKS_.exit unwind label %8

8:                                                ; preds = %.noexc
  %9 = landingpad { ptr, i32 }
          cleanup
  tail call void @_ZN18FunctionInvocationD2Ev(ptr noundef nonnull align 8 dereferenceable(56) %2) #11
  br label %.body

_ZN23FunctionInvocationUnaryC2ERKS_.exit:         ; preds = %.noexc
  ret ptr %2

10:                                               ; preds = %1
  %11 = landingpad { ptr, i32 }
          cleanup
  br label %.body

.body:                                            ; preds = %8, %10
  %eh.lpad-body = phi { ptr, i32 } [ %11, %10 ], [ %9, %8 ]
  tail call void @_ZdlPv(ptr noundef nonnull %2) #12
  resume { ptr, i32 } %eh.lpad-body
}